; Function Attrs: mustprogress nofree norecurse nosync nounwind willreturn memory(read, inaccessiblemem: none) uwtable
define hidden noundef zeroext i1 @_ZN15ConnectionGraph17not_global_escapeEP4Node(ptr nocapture noundef nonnull readonly align 8 dereferenceable(232) %0, ptr nocapture noundef readonly %1) local_unnamed_addr #5 align 2 {
  %3 = getelementptr inbounds i8, ptr %1, i64 40
  %4 = load i32, ptr %3, align 8
  %5 = load i32, ptr %0, align 8
  %.not = icmp ult i32 %4, %5
  br i1 %.not, label %6, label %.loopexit

6:                                                ; preds = %2
  %7 = getelementptr inbounds i8, ptr %0, i64 8
  %8 = load ptr, ptr %7, align 8
  %9 = sext i32 %4 to i64
  %10 = getelementptr inbounds ptr, ptr %8, i64 %9
  %11 = load ptr, ptr %10, align 8
  %12 = icmp eq ptr %11, null
  br i1 %12, label %.loopexit, label %13

13:                                               ; preds = %6
  %14 = getelementptr inbounds i8, ptr %11, i64 50
  %15 = load i8, ptr %14, align 2
  %16 = icmp ugt i8 %15, 2
  br i1 %16, label %.loopexit, label %17

17:                                               ; preds = %13
  %18 = getelementptr inbounds i8, ptr %11, i64 48
  %19 = load i8, ptr %18, align 8
  %20 = icmp eq i8 %19, 1
  br i1 %20, label %.loopexit, label %21

21:                                               ; preds = %17
  %22 = load i32, ptr %11, align 4
  %23 = icmp sgt i32 %22, 0
  br i1 %23, label %.lr.ph, label %.loopexit

.lr.ph:                                           ; preds = %21
  %24 = getelementptr inbounds i8, ptr %11, i64 8
  %25 = load ptr, ptr %24, align 8
  %wide.trip.count = zext nneg i32 %22 to i64
  br label %26

26:                                               ; preds = %26, %.lr.ph
  %indvars.iv = phi i64 [ 0, %.lr.ph ], [ %indvars.iv.next, %26 ]
  %27 = getelementptr inbounds ptr, ptr %25, i64 %indvars.iv
  %28 = load ptr, ptr %27, align 8
  %29 = getelementptr inbounds i8, ptr %28, i64 50
  %30 = load i8, ptr %29, align 2
  %31 = icmp ult i8 %30, 3
  %indvars.iv.next = add nuw nsw i64 %indvars.iv, 1
  %exitcond.not = icmp ne i64 %indvars.iv.next, %wide.trip.count
  %or.cond.not = select i1 %31, i1 %exitcond.not, i1 false
  br i1 %or.cond.not, label %26, label %.loopexit, !llvm.loop !47

.loopexit:                                        ; preds = %26, %21, %17, %13, %6, %2
  %.0 = phi i1 [ false, %2 ], [ false, %6 ], [ false, %13 ], [ true, %17 ], [ true, %21 ], [ %31, %26 ]
  ret i1 %.0
}